; ModuleID = '24/2436.c'
source_filename = "24/2436.c"
target datalayout = "e-m:e-p270:32:32-p271:32:32-p272:64:64-i64:64-f80:128-n8:16:32:64-S128"
target triple = "x86_64-pc-linux-gnu"

@.str = private unnamed_addr constant [3 x i8] c"%c\00", align 1
@.str.1 = private unnamed_addr constant [2 x i8] c"\0A\00", align 1

; Function Attrs: noinline nounwind uwtable
define dso_local i32 @main() #0 {
  %1 = alloca i32, align 4
  %2 = alloca [2000 x i8], align 16
  %3 = alloca [201 x [2 x i32]], align 16
  %4 = alloca i32, align 4
  %5 = alloca i32, align 4
  %6 = alloca i32, align 4
  %7 = alloca i32, align 4
  %8 = alloca i32, align 4
  %9 = alloca i32, align 4
  %10 = alloca i32, align 4
  %11 = alloca i32, align 4
  store i32 0, i32* %1, align 4
  %12 = bitcast [2000 x i8]* %2 to i8*
  call void @llvm.memset.p0i8.i64(i8* align 16 %12, i8 0, i64 2000, i1 false)
  %13 = getelementptr inbounds [2000 x i8], [2000 x i8]* %2, i64 0, i64 0
  %14 = call i32 (i8*, ...) bitcast (i32 (...)* @gets to i32 (i8*, ...)*)(i8* %13)
  %15 = bitcast [201 x [2 x i32]]* %3 to i8*
  call void @llvm.memset.p0i8.i64(i8* align 16 %15, i8 0, i64 1608, i1 false)
  store i32 0, i32* %4, align 4
  store i32 0, i32* %5, align 4
  %16 = getelementptr inbounds [2000 x i8], [2000 x i8]* %2, i64 0, i64 0
  %17 = call i64 @strlen(i8* %16) #4
  %18 = trunc i64 %17 to i32
  store i32 %18, i32* %7, align 4
  store i32 0, i32* %6, align 4
  store i32 0, i32* %8, align 4
  store i32 0, i32* %9, align 4
  store i32 0, i32* %11, align 4
  store i32 19000, i32* %10, align 4
  br label %19

19:                                               ; preds = %95, %0
  %20 = load i32, i32* %5, align 4
  %21 = load i32, i32* %7, align 4
  %22 = icmp slt i32 %20, %21
  br i1 %22, label %23, label %96

23:                                               ; preds = %19
  %24 = load i32, i32* %5, align 4
  store i32 %24, i32* %4, align 4
  br label %25

25:                                               ; preds = %45, %23
  %26 = load i32, i32* %4, align 4
  %27 = load i32, i32* %7, align 4
  %28 = icmp slt i32 %26, %27
  br i1 %28, label %29, label %48

29:                                               ; preds = %25
  %30 = load i32, i32* %4, align 4
  %31 = sext i32 %30 to i64
  %32 = getelementptr inbounds [2000 x i8], [2000 x i8]* %2, i64 0, i64 %31
  %33 = load i8, i8* %32, align 1
  %34 = sext i8 %33 to i32
  %35 = icmp ne i32 %34, 32
  br i1 %35, label %36, label %44

36:                                               ; preds = %29
  %37 = load i32, i32* %4, align 4
  %38 = sext i32 %37 to i64
  %39 = getelementptr inbounds [2000 x i8], [2000 x i8]* %2, i64 0, i64 %38
  %40 = load i8, i8* %39, align 1
  %41 = sext i8 %40 to i32
  %42 = icmp ne i32 %41, 44
  br i1 %42, label %43, label %44

43:                                               ; preds = %36
  br label %48

44:                                               ; preds = %36, %29
  br label %45

45:                                               ; preds = %44
  %46 = load i32, i32* %4, align 4
  %47 = add nsw i32 %46, 1
  store i32 %47, i32* %4, align 4
  br label %25

48:                                               ; preds = %43, %25
  %49 = load i32, i32* %4, align 4
  store i32 %49, i32* %5, align 4
  br label %50

50:                                               ; preds = %70, %48
  %51 = load i32, i32* %5, align 4
  %52 = load i32, i32* %7, align 4
  %53 = icmp slt i32 %51, %52
  br i1 %53, label %54, label %73

54:                                               ; preds = %50
  %55 = load i32, i32* %5, align 4
  %56 = sext i32 %55 to i64
  %57 = getelementptr inbounds [2000 x i8], [2000 x i8]* %2, i64 0, i64 %56
  %58 = load i8, i8* %57, align 1
  %59 = sext i8 %58 to i32
  %60 = icmp eq i32 %59, 32
  br i1 %60, label %68, label %61

61:                                               ; preds = %54
  %62 = load i32, i32* %5, align 4
  %63 = sext i32 %62 to i64
  %64 = getelementptr inbounds [2000 x i8], [2000 x i8]* %2, i64 0, i64 %63
  %65 = load i8, i8* %64, align 1
  %66 = sext i8 %65 to i32
  %67 = icmp eq i32 %66, 44
  br i1 %67, label %68, label %69

68:                                               ; preds = %61, %54
  br label %73

69:                                               ; preds = %61
  br label %70

70:                                               ; preds = %69
  %71 = load i32, i32* %5, align 4
  %72 = add nsw i32 %71, 1
  store i32 %72, i32* %5, align 4
  br label %50

73:                                               ; preds = %68, %50
  %74 = load i32, i32* %5, align 4
  %75 = load i32, i32* %4, align 4
  %76 = sub nsw i32 %74, %75
  %77 = load i32, i32* %9, align 4
  %78 = load i32, i32* %8, align 4
  %79 = sub nsw i32 %77, %78
  %80 = icmp sgt i32 %76, %79
  br i1 %80, label %81, label %84

81:                                               ; preds = %73
  %82 = load i32, i32* %4, align 4
  store i32 %82, i32* %8, align 4
  %83 = load i32, i32* %5, align 4
  store i32 %83, i32* %9, align 4
  br label %84

84:                                               ; preds = %81, %73
  %85 = load i32, i32* %5, align 4
  %86 = load i32, i32* %4, align 4
  %87 = sub nsw i32 %85, %86
  %88 = load i32, i32* %10, align 4
  %89 = load i32, i32* %11, align 4
  %90 = sub nsw i32 %88, %89
  %91 = icmp slt i32 %87, %90
  br i1 %91, label %92, label %95

92:                                               ; preds = %84
  %93 = load i32, i32* %4, align 4
  store i32 %93, i32* %11, align 4
  %94 = load i32, i32* %5, align 4
  store i32 %94, i32* %10, align 4
  br label %95

95:                                               ; preds = %92, %84
  br label %19

96:                                               ; preds = %19
  %97 = load i32, i32* %8, align 4
  store i32 %97, i32* %4, align 4
  br label %98

98:                                               ; preds = %109, %96
  %99 = load i32, i32* %4, align 4
  %100 = load i32, i32* %9, align 4
  %101 = icmp slt i32 %99, %100
  br i1 %101, label %102, label %112

102:                                              ; preds = %98
  %103 = load i32, i32* %4, align 4
  %104 = sext i32 %103 to i64
  %105 = getelementptr inbounds [2000 x i8], [2000 x i8]* %2, i64 0, i64 %104
  %106 = load i8, i8* %105, align 1
  %107 = sext i8 %106 to i32
  %108 = call i32 (i8*, ...) @printf(i8* getelementptr inbounds ([3 x i8], [3 x i8]* @.str, i64 0, i64 0), i32 %107)
  br label %109

109:                                              ; preds = %102
  %110 = load i32, i32* %4, align 4
  %111 = add nsw i32 %110, 1
  store i32 %111, i32* %4, align 4
  br label %98

112:                                              ; preds = %98
  %113 = call i32 (i8*, ...) @printf(i8* getelementptr inbounds ([2 x i8], [2 x i8]* @.str.1, i64 0, i64 0))
  %114 = load i32, i32* %11, align 4
  store i32 %114, i32* %4, align 4
  br label %115

115:                                              ; preds = %126, %112
  %116 = load i32, i32* %4, align 4
  %117 = load i32, i32* %10, align 4
  %118 = icmp slt i32 %116, %117
  br i1 %118, label %119, label %129

119:                                              ; preds = %115
  %120 = load i32, i32* %4, align 4
  %121 = sext i32 %120 to i64
  %122 = getelementptr inbounds [2000 x i8], [2000 x i8]* %2, i64 0, i64 %121
  %123 = load i8, i8* %122, align 1
  %124 = sext i8 %123 to i32
  %125 = call i32 (i8*, ...) @printf(i8* getelementptr inbounds ([3 x i8], [3 x i8]* @.str, i64 0, i64 0), i32 %124)
  br label %126

126:                                              ; preds = %119
  %127 = load i32, i32* %4, align 4
  %128 = add nsw i32 %127, 1
  store i32 %128, i32* %4, align 4
  br label %115

129:                                              ; preds = %115
  ret i32 0
}

; Function Attrs: argmemonly nounwind willreturn
declare void @llvm.memset.p0i8.i64(i8* nocapture writeonly, i8, i64, i1 immarg) #1

declare dso_local i32 @gets(...) #2

; Function Attrs: nounwind readonly
declare dso_local i64 @strlen(i8*) #3

declare dso_local i32 @printf(i8*, ...) #2


!llvm.module.flags = !{!0}
!llvm.ident = !{!1}

!0 = !{i32 1, !"wchar_size", i32 4}
!1 = !{!"clang version 10.0.0-4ubuntu1 "}
